; Function Attrs: mustprogress nofree norecurse nosync nounwind willreturn memory(read, inaccessiblemem: none) uwtable
define hidden noundef ptr @_ZN11DecodeNNode8IdentityEP8PhaseGVN(ptr noundef nonnull readonly align 8 dereferenceable(64) %0, ptr nocapture noundef readonly %1) unnamed_addr #0 align 2 {
  %3 = getelementptr inbounds i8, ptr %0, i64 8
  %4 = load ptr, ptr %3, align 8
  %5 = getelementptr inbounds i8, ptr %4, i64 8
  %6 = load ptr, ptr %5, align 8
  %7 = getelementptr inbounds i8, ptr %1, i64 40
  %8 = load ptr, ptr %7, align 8
  %9 = getelementptr inbounds i8, ptr %6, i64 40
  %10 = load i32, ptr %9, align 8
  %11 = getelementptr inbounds i8, ptr %8, i64 16
  %12 = load ptr, ptr %11, align 8
  %13 = zext i32 %10 to i64
  %14 = getelementptr inbounds ptr, ptr %12, i64 %13
  %15 = load ptr, ptr %14, align 8
  %16 = load ptr, ptr @_ZN4Type3TOPE, align 8
  %17 = icmp eq ptr %15, %16
  br i1 %17, label %28, label %18

18:                                               ; preds = %2
  %19 = getelementptr inbounds i8, ptr %6, i64 44
  %20 = load i32, ptr %19, align 4
  %21 = and i32 %20, 2047
  %22 = icmp eq i32 %21, 1540
  br i1 %22, label %23, label %28

23:                                               ; preds = %18
  %24 = getelementptr inbounds i8, ptr %6, i64 8
  %25 = load ptr, ptr %24, align 8
  %26 = getelementptr inbounds i8, ptr %25, i64 8
  %27 = load ptr, ptr %26, align 8
  br label %28

28:                                               ; preds = %2, %18, %23
  %.0 = phi ptr [ %27, %23 ], [ %0, %18 ], [ %6, %2 ]
  ret ptr %.0
}